(lp1
(lp2
(dp3
S'id_to_ftag'
p4
(dp5
I0
S'<UNK>'
p6
sI1
V\u306e
sI2
V\u306b
sI3
V\u3092
sI4
V\u306f
sI5
V\u3059\u308b
p7
sI6
V\u305f
sI7
V\u304c
sI8
V\u305d\u306e
p8
sI9
V\u3068
sI10
V\u53c8\u306f
p9
sI11
V\u3066
sI12
V\u306a\u3044
p10
sI13
V\u5b9a\u3081\u308b
p11
sI14
V\u3067\u304d\u308b
p12
sI15
V\u304b\u3089
p13
sI16
V\u3042\u308b
p14
sI17
V\u3067
sI18
V\u306b\u3088\u308b
p15
sI19
V\u306b\u3088\u308a
p16
sI20
V\u53ca\u3073
p17
sI21
V\u4fc2\u308b
p18
sI22
V\u306b\u304a\u3044\u3066
p19
sI23
V\u5f53\u8a72
p20
sI24
V\u6761
sI25
V\u82e5\u3057\u304f\u306f
p21
sI26
V\u306b\u3088\u3063\u3066
p22
sI27
V\u3088\u308a
p23
sI28
V\u306a
sI29
V\u3053\u306e
p24
sI30
V\u305a
sI31
V\u3064\u304d
p25
sI32
V\u3079\u304d
p26
sI33
V\u6709\u3059\u308b
p27
sI34
V\u306b\u95a2\u3059\u308b
p28
sI35
V\u9805
sI36
V\u306b\u3064\u3044\u3066
p29
sI37
V\u884c\u3046
p30
sI38
V\u307f\u306a\u3059
p31
sI39
V\u4ee5\u4e0a
p32
sI40
V\u4ee5\u5f8c
p33
sI41
V\u65e5
sI42
V\u9664\u304d
p34
sI43
V\u3068\u3057\u3066
p35
sI44
V\u306b\u5bfe\u3057
p36
sI45
V\u53d7\u3051\u308b
p37
sI46
V\u304b\u3064
p38
sI47
V\u65e2\u306b
p39
sI48
V\u306b\u5bfe\u3057\u3066
p40
sI49
V\u3057
sI50
V\u5f53\u6642
p41
sI51
V\u63b2\u3052\u308b
p42
sI52
V\u3046\u3061
p43
sI53
V\u308c\u308b
p44
sI54
V\u305f\u3081
p45
sI55
V\u6599
sI56
V\u305d\u306e\u4ed6
p46
sI57
V\u8a8d\u3081\u308b
p47
sI58
V\u306b\u304a\u3051\u308b
p48
sI59
V\u3044\u308b
p49
sI60
V\u307b\u304b
p50
sI61
V\u305d\u308c\u305e\u308c
p51
sI62
V\u306b\u95a2\u3057
p52
sI63
V\u51e6\u3059\u308b
p53
sI64
V\u305f\u308b
p54
sI65
V\u306b\u3064\u304d
p55
sI66
V\u306a\u308b
p56
sI67
V\u6cd5
sI68
V\u305b\u308b
p57
sI69
V\u8457\u3057\u304f
p58
sI70
V\u3044\u3046
p59
sI71
V\u4e26\u3073\u306b
p60
sI72
V\u5207\u308a\u6368\u3066\u308b
p61
sI73
V\u57fa\u3065\u304f
p62
sI74
V\u5c5e\u3059\u308b
p63
sI75
V\u671f\u9593
p64
sI76
V\u8005
sI77
V\u3068\u304d
p65
sI78
V\u306b\u95a2\u3057\u3066
p66
sI79
V\u5207\u308a\u4e0a\u3052\u308b
p67
sI80
V\u304b\u304b\u308a
p68
sI81
V\u305f\u3060\u3057
p69
sI82
V\u3082
sI83
V\u540c\u3058\u304f
p70
sI84
V\u5ea6
sI85
V\u8981\u3059\u308b
p71
sI86
V\u306b\u5bfe\u3059\u308b
p72
sI87
V\u3088\u308b
p73
sI88
V\u3092\u3082\u3063\u3066
p74
sI89
V\u4e0a
sI90
V\u53d6\u308a\u6d88\u3059
p75
sI91
V\u9593
sI92
V\u3060
sI93
V\u306a\u304f
p76
sI94
V\u4f1a
sI95
V\u4f1a\u793e
p77
sI96
V\u59cb\u3081\u308b
p78
sI97
V\u8d85\u3048\u308b
p79
sI98
V\u9054\u3059\u308b
p80
sI99
V\u9664\u304f
p81
sI100
V\u3067\u3082
p82
sI101
V\u3070
sI102
V\u5145\u3066\u308b
p83
sI103
V\u6c42\u3081\u308b
p84
sI104
V\u3042\u308a
p85
sI105
V\u521d\u3081\u3066
p86
sI106
V\u547d\u305a\u308b
p87
sI107
V\u66f4\u306b
p88
sI108
V\u6708\u6570
p89
sI109
V\u6709\u3057
p90
sI110
V\u884c\u306a\u3046
p91
sI111
V\u9045\u6ede
p92
sI112
V\u3042\u3089\u304b\u3058\u3081
p93
sI113
V\u305a\u308b
p94
sI114
V\u305d\u306e\u3046\u3061
p95
sI115
V\u306b\u308f\u305f\u3063\u3066
p96
sI116
V\u308c
sI117
V\u55b6\u3080
p97
sI118
V\u56f3\u308b
p98
sI119
V\u57fa\u3065\u304d
p99
sI120
V\u5b50
sI121
V\u5c11\u306a\u304f\u3068\u3082
p100
sI122
V\u5e74\u9593
p101
sI123
V\u6a5f\u95a2
p102
sI124
V\u6b21\u306b
p103
sI125
V\u6bce\u5e74
p104
sI126
V\u6c7a\u3059\u308b
p105
sI127
V\u767a\u3059\u308b
p106
sI128
V\u7d44\u5408
p107
sI129
V\u7f6e\u304f
p108
sI130
V\u304a\u304a\u3080\u306d
p109
sI131
V\u3064\u3064
p110
sI132
V\u3068\u3044\u3046
p111
sI133
V\u306a\u304a
p112
sI134
V\u306b\u3082\u304b\u304b\u308f\u3089\u305a
p113
sI135
V\u306b\u5f53\u305f\u308a
p114
sI136
V\u3089\u308c
p115
sI137
V\u3089\u308c\u308b
p116
sI138
V\u4e2d
sI139
V\u4e3b\u3068\u3057\u3066
p117
sI140
V\u4ee3\u7406\u4eba
p118
sI141
V\u4efb
sI142
V\u4fdd\u3064
p119
sI143
V\u51e6\u5206
p120
sI144
V\u524d
sI145
V\u524d\u9805
p121
sI146
V\u53f7
sI147
V\u59a8\u3052
p122
sI148
V\u5b6b
sI149
V\u5bb3\u3059\u308b
p123
sI150
V\u5f8c
sI151
V\u624b\u5e33
p124
sI152
V\u62d2\u307f
p125
sI153
V\u652f\u6255\u3046
p126
sI154
V\u7236\u6bcd
p127
sI155
V\u73fe\u306b
p128
sI156
V\u793a\u3059
p129
sI157
V\u79d1\u3059\u308b
p130
sI158
V\u7f70\u3059\u308b
p131
sI159
V\u8001\u9f62
p132
sI160
V\u8ca0\u3046
p133
sI161
V\u9650\u308a
p134
sI162
V\u985e\u3059\u308b
p135
sI163
V\u304b\u308c\u308b
p136
sI164
V\u3053\u3068
p137
sI165
V\u3055\u305b
p138
sI166
V\u3055\u3089\u306b
p139
sI167
V\u3068\u3068\u3082\u306b
p140
sI168
V\u306a\u3089
p141
sI169
V\u306b\u308f\u305f\u308a
p142
sI170
V\u306b\u308f\u305f\u308b
p143
sI171
V\u306e\u307f
p144
sI172
V\u307e\u3060
p145
sI173
V\u307e\u3067
p146
sI174
V\u3082\u3063\u3066
p147
sI175
V\u3082\u306e
p148
sI176
V\u3082\u306e\u306e
p149
sI177
V\u3092\u901a\u3058\u3066
p150
sI178
V\u4e00\u6642
p151
sI179
V\u4e0a\u56de\u308b
p152
sI180
V\u4e0b\u56de\u308a
p153
sI181
V\u4e3b\u305f\u308b
p154
sI182
V\u4e8c\u6708
p155
sI183
V\u4ee5\u964d
p156
sI184
V\u4f34\u3044
p157
sI185
V\u4f4f\u5b85
p158
sI186
V\u4fe1\u8a17
p159
sI187
V\u5099\u3048\u308b
p160
sI188
V\u514d
sI189
V\u516b\u6708
p161
sI190
V\u516d\u6708
p162
sI191
V\u517c\u306d\u308b
p163
sI192
V\u53d7\u3051
p164
sI193
V\u540c\u6642\u306b
p165
sI194
V\u540d\u79f0
p166
sI195
V\u542b\u3080
p167
sI196
V\u55aa\u5931
p168
sI197
V\u56db\u6708
p169
sI198
V\u57fa\u304d
p170
sI199
V\u5909\u66f4
p171
sI200
V\u5c02\u3089
p172
sI201
V\u5dee\u3057\u62bc\u3048\u308b
p173
sI202
V\u5dee\u3057\u6b62\u3081\u308b
p174
sI203
V\u5e33\u7c3f
p175
sI204
V\u5e74
sI205
V\u5e74\u91d1
p176
sI206
V\u5f53\u308a
p177
sI207
V\u5fdc\u305a\u308b
p178
sI208
V\u6020\u308a
p179
sI209
V\u6069\u7d66
p180
sI210
V\u61b2\u6cd5
p181
sI211
V\u6240\u5728\u5730
p182
sI212
V\u624b\u7d9a
p183
sI213
V\u6255\u3044
p184
sI214
V\u62db\u96c6
p185
sI215
V\u65bd\u8a2d
p186
sI216
V\u6b21\u3044\u3067
p187
sI217
V\u6b21\u3050
p188
sI218
V\u6c0f\u540d
p189
sI219
V\u6c11\u6cd5
p190
sI220
V\u6cd5\u4ee4
p191
sI221
V\u6d88\u6ec5
p192
sI222
V\u7279\u306b
p193
sI223
V\u751f\u3058\u308b
p194
sI224
V\u7bc0
sI225
V\u7d42\u308b
p195
sI226
V\u7d66\u4ed8
p196
sI227
V\u8457\u3057\u3044
p197
sI228
V\u8aad\u307f\u66ff\u3048\u308b
p198
sI229
V\u8ab2\u3059\u308b
p199
sI230
V\u8b72\u308a\u6e21\u3059
p200
sI231
V\u8cc7\u3059\u308b
p201
sI232
V\u9577\u5b98
p202
sI233
V\u95a2\u4fc2
p203
sI234
V\u9644\u5247
p204
sI235
V\u969b
sI236
V\u9707\u707d
p205
sI237
V\u9806\u6b21
p206
sI238
V\u984d
sI239
V\u98a8\u6c34\u5bb3
p207
ssS'dim'
p208
I15
sS'name'
p209
S'f3'
p210
sS'column'
p211
I3
sS'dico_ftag'
p212
(dp213
g103
I3
sg94
I3
sg67
I9
sg19
I81
sg128
I2
sg172
I1
sg166
I1
sg96
I3
sV\u6599
I20
sV\u969b
I1
sV\u4f1a
I6
sg31
I31
sg12
I146
sg190
I1
sg101
I3
sg194
I1
sg44
I21
sg79
I6
sg119
I2
sg141
I1
sg120
I2
sg68
I8
sg202
I1
sg151
I1
sg181
I1
sg193
I1
sg167
I1
sg71
I8
sg81
I6
sg20
I62
sg139
I1
sV\u304c
I667
sg18
I112
sV\u5b6b
I2
sg92
I4
sg149
I1
sg140
I1
sV\u65e5
I30
sg109
I2
sg192
I1
sV\u3060
I6
sg34
I30
sg26
I39
sg35
I29
sV\u3068
I316
sg89
I4
sV\u3066
I178
sg75
I7
sg187
I1
sg91
I4
sV\u3070
I5
sV\u5e74
I1
sg117
I2
sg134
I2
sg41
I22
sV\u4efb
I2
sg63
I11
sg200
I1
sV\u306a
I43
sg108
I3
sg123
I2
sg53
I15
sg182
I1
sV\u308c
I3
sg105
I3
sg143
I1
sg142
I1
sg188
I1
sg84
I5
sg180
I1
sg121
I2
sg55
I14
sg29
I34
sg186
I1
sg11
I152
sg80
I6
sg122
I2
sg158
I1
sg15
I120
sg17
I117
sg177
I1
sg114
I2
sg183
I1
sg47
I19
sg8
I450
sg46
I19
sg97
I3
sg25
I39
sg159
I1
sg107
I3
sV\u524d
I2
sV\u514d
I1
sg85
I4
sg14
I133
sg131
I2
sg54
I14
sg173
I1
sV\u3057
I23
sg157
I1
sg169
I1
sg40
I25
sg72
I7
sV\u305f
I760
sg28
I37
sV\u6761
I58
sg33
I30
sg175
I1
sg51
I16
sV\u3067
I125
sg78
I6
sV\u306b
I1055
sg127
I2
sV\u306f
I895
sg197
I1
sg76
I6
sg82
I5
sg112
I2
sg10
I175
sg174
I1
sg58
I12
sg130
I2
sg205
I1
sg136
I1
sg154
I1
sg163
I1
sg160
I1
sg147
I1
sV\u4e0a
I7
sg64
I11
sg162
I1
sg87
I4
sg23
I46
sg73
I7
sV\u9593
I7
sg185
I1
sV\u8005
I11
sg21
I52
sg6
I10000000
sg156
I1
sg170
I1
sg86
I4
sg171
I1
sg43
I21
sg37
I27
sg9
I249
sg70
I8
sg118
I2
sg7
I816
sg125
I2
sg49
I17
sg38
I26
sg152
I1
sg56
I13
sg168
I1
sg126
I2
sV\u5b50
I3
sg137
I1
sV\u6cd5
I13
sg24
I41
sV\u305a
I41
sg74
I7
sg98
I3
sg178
I1
sg138
I1
sg32
I31
sg36
I28
sg148
I1
sg100
I3
sg106
I3
sV\u306e
I1904
sg179
I1
sg83
I5
sg153
I1
sg129
I2
sV\u53f7
I2
sg65
I10
sg52
I15
sV\u3082
I8
sV\u9805
I36
sg59
I11
sg204
I1
sg161
I1
sV\u5f8c
I2
sg27
I38
sg176
I1
sg145
I1
sV\u3092
I940
sg164
I1
sg66
I10
sg104
I3
sg146
I1
sg30
I34
sg95
I3
sg69
I8
sg133
I2
sg199
I1
sg203
I1
sV\u5ea6
I8
sg13
I135
sg60
I11
sV\u4e2d
I2
sg62
I11
sg155
I1
sg99
I3
sg206
I1
sg88
I4
sg144
I1
sg135
I2
sg45
I20
sg93
I3
sg110
I2
sV\u7bc0
I1
sg42
I22
sg196
I1
sg90
I4
sg22
I48
sV\u984d
I1
sg116
I2
sg113
I2
sg195
I1
sg16
I118
sg132
I2
sg207
I1
sg115
I2
sg184
I1
sg57
I12
sg191
I1
sg165
I1
sg39
I26
sg124
I2
sg48
I18
sg61
I11
sg198
I1
sg189
I1
sg201
I1
sg111
I2
sg77
I6
sg150
I1
sg50
I17
sg102
I3
ssS'ftag_to_id'
p214
(dp215
g94
I113
sg67
I79
sg19
I22
sg128
I155
sg172
I200
sg166
I194
sg96
I115
sV\u6599
I55
sV\u969b
I235
sV\u4f1a
I94
sg31
I38
sg12
I14
sg190
I219
sg205
I236
sg194
I223
sg44
I53
sg109
I130
sg119
I142
sg141
I168
sg120
I143
sg68
I80
sg202
I232
sg151
I178
sg181
I210
sg193
I222
sg167
I195
sg71
I85
sg81
I99
sg20
I23
sg103
I124
sV\u304c
I7
sg18
I21
sg25
I31
sg149
I176
sg183
I212
sg26
I32
sg79
I97
sg192
I221
sV\u3060
I92
sg34
I42
sV\u65e5
I41
sg35
I43
sV\u3068
I9
sg89
I108
sV\u3066
I11
sg75
I90
sg91
I110
sV\u3070
I101
sV\u5e74
I204
sg117
I139
sg134
I161
sg41
I50
sV\u4efb
I141
sg63
I74
sg200
I230
sg100
I121
sg108
I129
sg123
I149
sg53
I63
sg182
I211
sg207
I239
sV\u308c
I116
sg106
I127
sg98
I118
sg142
I169
sg188
I217
sg189
I218
sg84
I103
sg180
I209
sg121
I145
sg55
I65
sg29
I36
sg186
I215
sg11
I13
sg80
I98
sg122
I147
sg158
I185
sg17
I20
sg177
I206
sg114
I135
sg140
I167
sg47
I57
sg8
I8
sg46
I56
sg156
I183
sg159
I186
sg107
I128
sV\u984d
I238
sV\u514d
I188
sg85
I104
sg14
I16
sg131
I158
sg54
I64
sg173
I201
sV\u3057
I49
sg126
I153
sg157
I184
sg136
I163
sg40
I48
sg72
I86
sg45
I54
sg28
I34
sV\u6761
I24
sg33
I40
sg175
I203
sg51
I61
sV\u3067
I17
sg78
I96
sV\u306b
I2
sg127
I154
sV\u306f
I4
sg197
I227
sg76
I93
sg82
I100
sg112
I133
sg10
I12
sg174
I202
sg58
I69
sg130
I157
sV\u305f
I6
sg154
I181
sg163
I191
sg135
I162
sg147
I174
sV\u4e0a
I89
sg64
I75
sg162
I190
sg87
I106
sg23
I27
sg73
I87
sV\u9593
I91
sg116
I137
sg185
I214
sg160
I187
sV\u8005
I76
sg21
I25
sg6
I0
sg97
I117
sg170
I198
sg169
I197
sg86
I105
sg171
I199
sg43
I52
sg37
I45
sg9
I10
sg70
I83
sg118
I140
sg7
I5
sg161
I189
sg49
I59
sg38
I46
sg152
I179
sg56
I66
sg168
I196
sg39
I47
sV\u5b50
I120
sg137
I164
sV\u6cd5
I67
sg24
I29
sV\u305a
I30
sg74
I88
sg143
I170
sg178
I207
sg138
I165
sg32
I39
sg132
I159
sg36
I44
sg148
I175
sV\u306a
I28
sg105
I126
sV\u306e
I1
sg179
I208
sg83
I102
sg153
I180
sg129
I156
sV\u53f7
I146
sg65
I77
sg52
I62
sV\u3082
I82
sV\u9805
I35
sg59
I70
sg204
I234
sg125
I152
sV\u5f8c
I150
sg27
I33
sg176
I205
sg145
I172
sV\u3092
I3
sg164
I192
sg66
I78
sg104
I125
sg146
I173
sg30
I37
sg95
I114
sg69
I81
sg133
I160
sg199
I229
sg203
I233
sV\u5ea6
I84
sg13
I15
sg60
I71
sV\u4e2d
I138
sg62
I73
sg155
I182
sg99
I119
sg206
I237
sg88
I107
sg144
I171
sg187
I216
sg93
I112
sg110
I131
sV\u7bc0
I224
sg42
I51
sg196
I226
sg90
I109
sg22
I26
sV\u524d
I144
sg101
I122
sg113
I134
sg195
I225
sg16
I19
sg15
I18
sg139
I166
sg115
I136
sg184
I213
sg57
I68
sg191
I220
sg165
I193
sg124
I151
sg48
I58
sg61
I72
sg198
I228
sV\u5b6b
I148
sg201
I231
sg111
I132
sg77
I95
sg92
I111
sg150
I177
sg50
I60
sg102
I123
ssa(dp216
g4
(dp217
I0
g6
sI1
VNO
p218
sI2
V\u3001
sI3
V\u3002
ssg208
I2
sg209
S'f6'
p219
sg211
I6
sg212
(dp220
V\u3001
I1667
sg6
I10000000
sV\u3002
I616
sg218
I9178
ssg214
(dp221
V\u3001
I2
sg218
I1
sV\u3002
I3
sg6
I0
ssaa(dp222
S'id_to_char'
p223
(dp224
I0
V\u308b
sI1
V\u3059
sI2
V\u306e
sI3
V\u3068
sI4
V\u8005
sI5
V\u305d
sI6
V\u304d
sI7
V\u3057
sI8
V\u5b9a
sI9
V\u9805
sI10
V\u91d1
sI11
V\u3053
sI12
V\u306f
sI13
V\u5e74
sI14
V\u898f
sI15
V\u53c8
sI16
V\u3082
sI17
V\u3081
sI18
V\u3063
sI19
V\u9593
sI20
V\u671f
sI21
V\u65e5
sI22
V\u984d
sI23
V\u3042
sI24
V\u4ee5
sI25
V\u524d
sI26
V\u3067
sI27
V\u308c
sI28
V\u6599
sI29
V\u4e8b
sI30
V\u3055
sI31
V\u6761
sI32
V\u6708
sI33
V\u7d66
sI34
V\u304b
sI35
V\u9577
sI36
V\u5b50
sI37
V\u306a
sI38
V\u3073
sI39
V\u4ee4
sI40
V\u53ca
sI41
V\u4fc2
sI42
V\u57fa
sI43
V\u7b49
sI44
V\u8981
sI45
V\u304f
sI46
V\u6cd5
sI47
V\u5b98
sI48
V\u653f
sI49
V\u5408
sI50
V\u3046
sI51
V\u53f7
sI52
V\u7533
sI53
V\u3058
sI54
V\u5834
sI55
V\u8acb
sI56
V\u652f
sI57
V\u5f53
sI58
V\u3051
sI59
V\u308a
sI60
V\u54e1
sI61
V\u4ed8
sI62
V\u3044
sI63
V\u6570
sI64
V\u4e0a
sI65
V\u6a29
sI66
V\u53d7
sI67
V\u4f1a
sI68
V\u3064
sI69
V\u751f
sI70
V\u3089
sI71
V\u884c
sI72
V\u51fa
sI73
V\u5bb3
sI74
V\u52d9
sI75
V\u4ed6
sI76
V\u5f8c
sI77
V\u8a72
sI78
V\u5ea6
sI79
V\u969c
sI80
V\u81f3
sI81
V\u308f
sI82
V\u6b21
sI83
V\u9664
sI84
V\u3088
sI85
V\u6240
sI86
V\u82e5
sI87
V\u306b
sI88
V\u305a
sI89
V\u7387
sI90
V\u7531
sI91
V\u8cc7
sI92
V\u51e6
sI93
V\u5fc5
sI94
V\u683c
sI95
V\u3061
sI96
V\u6709
sI97
V\u4e00
sI98
V\u5f97
sI99
V\u7fcc
sI100
V\u696d
sI101
V\u5206
sI102
V\u305f
sI103
V\u307f
sI104
V\u8a8d
sI105
V\u308d
sI106
V\u4eba
sI107
V\u4e0b
sI108
V\u5f8b
sI109
V\u6642
sI110
V\u7406
sI111
V\u3052
sI112
V\u6e80
sI113
V\u72b6
sI114
V\u7528
sI115
V\u5c4a
sI116
V\u5fdc
sI117
V\u6b7b
sI118
V\u4ea1
sI119
V\u672a
sI120
V\u59bb
sI121
V\u6c42
sI122
V\u8077
sI123
V\u614b
sI124
V\u7a0b
sI125
V\u7d0d
sI126
V\u65e2
sI127
V\u7d1a
sI128
V\u8a08
sI129
V\u3066
sI130
V\u5927
sI131
V\u6b73
sI132
V\u75c5
sI133
V\u9054
sI134
V\u90e8
sI135
V\u7aef
sI136
V\u81e3
sI137
V\u5186
sI138
V\u540c
sI139
V\u5185
sI140
V\u5229
sI141
V\u5e9c
sI142
V\u63b2
sI143
V\u6255
sI144
V\u9650
sI145
V\u4e57
sI146
V\u5207
sI147
V\u8b70
sI148
V\u9069
sI149
V\u6307
sI150
V\u8a2d
sI151
V\u305e
sI152
V\u307b
sI153
V\u4ef6
sI154
V\u6539
sI155
V\u8ca1
sI156
V\u3048
sI157
V\u3065
sI158
V\u4e09
sI159
V\u7d04
sI160
V\u5168
sI161
V\u7acb
sI162
V\u4e0d
sI163
V\u50b7
sI164
V\u5831
sI165
V\u7684
sI166
V\u898b
sI167
V\u307e
sI168
V\u53d6
sI169
V\u5916
sI170
V\u66f4
sI171
V\u67fb
sI172
V\u6c7a
sI173
V\u7d4c
sI174
V\u7dcf
sI175
V\u7f6e
sI176
V\u7f70
sI177
V\u8457
sI178
V\u4e3b
sI179
V\u4f4f
sI180
V\u5404
sI181
V\u544a
sI182
V\u56db
sI183
V\u56fd
sI184
V\u76e3
sI185
V\u4e26
sI186
V\u4ee3
sI187
V\u507d
sI188
V\u5225
sI189
V\u5c5e
sI190
V\u5e33
sI191
V\u610f
sI192
V\u6368
sI193
V\u65b9
sI194
V\u6b63
sI195
V\u6d88
sI196
V\u75be
sI197
V\u7a2e
sI198
V\u4efb
sI199
V\u56f0
sI200
V\u5909
sI201
V\u65cf
sI202
V\u6e96
sI203
V\u76ee
sI204
V\u8d85
sI205
V\u901a
sI206
V\u904b
sI207
V\u96e3
sI208
V\u3060
sI209
V\u5165
sI210
V\u521d
sI211
V\u547d
sI212
V\u5728
sI213
V\u59d4
sI214
V\u5f93
sI215
V\u60c5
sI216
V\u6545
sI217
V\u65bd
sI218
V\u865a
sI219
V\u8a17
sI220
V\u8ca0
sI221
V\u95a2
sI222
V\u9806
sI223
V\u4f8b
sI224
V\u5150
sI225
V\u53ef
sI226
V\u5730
sI227
V\u624b
sI228
V\u63aa
sI229
V\u65e8
sI230
V\u660e
sI231
V\u70ba
sI232
V\u7a0e
sI233
V\u7b97
sI234
V\u7fa9
sI235
V\u80ce
sI236
V\u8a3a
sI237
V\u8cbb
sI238
V\u907a
sI239
V\u304a
sI240
V\u3084
sI241
V\u4fdd
sI242
V\u53ce
sI243
V\u5c06
sI244
V\u5e02
sI245
V\u670d
sI246
V\u6751
sI247
V\u6765
sI248
V\u6b62
sI249
V\u7269
sI250
V\u753a
sI251
V\u7c3f
sI252
V\u7d44
sI253
V\u904e
sI254
V\u9a13
sI255
V\u305b
sI256
V\u307c
sI257
V\u3080
sI258
V\u3093
sI259
V\u4e2d
sI260
V\u4e8c
sI261
V\u505c
sI262
V\u5145
sI263
V\u52b9
sI264
V\u534a
sI265
V\u554f
sI266
V\u56e3
sI267
V\u59cb
sI268
V\u5f79
sI269
V\u627f
sI270
V\u63d0
sI271
V\u6a5f
sI272
V\u793e
sI273
V\u8cea
sI274
V\u4f4d
sI275
V\u4fc3
sI276
V\u511f
sI277
V\u5341
sI278
V\u540d
sI279
V\u5747
sI280
V\u592b
sI281
V\u59fb
sI282
V\u5a5a
sI283
V\u5e2f
sI284
V\u640d
sI285
V\u66f8
sI286
V\u6700
sI287
V\u691c
sI288
V\u6bb5
sI289
V\u767a
sI290
V\u76ca
sI291
V\u7763
sI292
V\u790e
sI293
V\u7b2c
sI294
V\u8236
sI295
V\u8239
sI296
V\u8861
sI297
V\u89e3
sI298
V\u8cac
sI299
V\u964d
sI300
V\u4e16
sI301
V\u4f59
sI302
V\u516d
sI303
V\u533a
sI304
V\u533b
sI305
V\u539f
sI306
V\u5411
sI307
V\u55b6
sI308
V\u5b9f
sI309
V\u5e2b
sI310
V\u65ad
sI311
V\u6b20
sI312
V\u6b8b
sI313
V\u6bcd
sI314
V\u6bce
sI315
V\u6c11
sI316
V\u6ede
sI317
V\u7642
sI318
V\u88dc
sI319
V\u8ff0
sI320
V\u9045
sI321
V\u9673
sI322
V\u985e
sI323
V\u990a
sI324
V\u305c
sI325
V\u306d
sI326
V\u4f9b
sI327
V\u4fa1
sI328
V\u5099
sI329
V\u50b5
sI330
V\u516c
sI331
V\u5236
sI332
V\u5247
sI333
V\u529b
sI334
V\u52a9
sI335
V\u56e0
sI336
V\u56f3
sI337
V\u5931
sI338
V\u5c11
sI339
V\u5dee
sI340
V\u62d2
sI341
V\u62db
sI342
V\u639b
sI343
V\u63f4
sI344
V\u6b04
sI345
V\u6cc1
sI346
V\u7279
sI347
V\u7523
sI348
V\u793a
sI349
V\u7949
sI350
V\u798f
sI351
V\u7ae0
sI352
V\u7d50
sI353
V\u7e01
sI354
V\u8001
sI355
V\u8868
sI356
V\u8abf
sI357
V\u8ce0
sI358
V\u8fbc
sI359
V\u91cd
sI360
V\u967a
sI361
V\u96c6
sI362
V\u96e2
sI363
V\u9f62
sI364
V\u4e03
sI365
V\u4ea4
sI366
V\u4f53
sI367
V\u500b
sI368
V\u516b
sI369
V\u5211
sI370
V\u52a0
sI371
V\u56de
sI372
V\u57f7
sI373
V\u5897
sI374
V\u5951
sI375
V\u59a8
sI376
V\u59b9
sI377
V\u59c9
sI378
V\u5a66
sI379
V\u5b6b
sI380
V\u5b89
sI381
V\u5bc6
sI382
V\u5be1
sI383
V\u5c40
sI384
V\u5df1
sI385
V\u5e8f
sI386
V\u5eab
sI387
V\u5f01
sI388
V\u5fb4
sI389
V\u6020
sI390
V\u62bc
sI391
V\u62c5
sI392
V\u6301
sI393
V\u63a5
sI394
V\u6563
sI395
V\u679c
sI396
V\u69d8
sI397
V\u6cbf
sI398
V\u6d3b
sI399
V\u6e08
sI400
V\u6e1b
sI401
V\u707d
sI402
V\u7236
sI403
V\u73fe
sI404
V\u76f4
sI405
V\u7701
sI406
V\u770c
sI407
V\u77e5
sI408
V\u78ba
sI409
V\u79d1
sI410
V\u79d8
sI411
V\u79f0
sI412
V\u7b87
sI413
V\u7bc0
sI414
V\u7d30
sI415
V\u7dad
sI416
V\u7e70
sI417
V\u81ea
sI418
V\u89aa
sI419
V\u8a18
sI420
V\u8a3c
sI421
V\u8ab2
sI422
V\u8b1b
sI423
V\u8d77
sI424
V\u8eab
sI425
V\u901f
sI426
V\u9053
sI427
V\u90fd
sI428
V\u92ad
sI429
V\u969b
sI430
V\u9762
sI431
V\u304c
sI432
V\u3050
sI433
V\u3054
sI434
V\u3079
sI435
V\u30bb
sI436
V\u30c8
sI437
V\u30d1
sI438
V\u30f3
sI439
V\u30fc
sI440
V\u4e88
sI441
V\u4e94
sI442
V\u4f34
sI443
V\u4fbf
sI444
V\u4fe1
sI445
V\u5065
sI446
V\u50cd
sI447
V\u5148
sI448
V\u514d
sI449
V\u5171
sI450
V\u517c
sI451
V\u5272
sI452
V\u52b4
sI453
V\u52d5
sI454
V\u53e3
sI455
V\u542b
sI456
V\u55aa
sI457
V\u57df
sI458
V\u5b57
sI459
V\u5b85
sI460
V\u5b9c
sI461
V\u5bc4
sI462
V\u5bfe
sI463
V\u5c02
sI464
V\u5e30
sI465
V\u5ea7
sI466
V\u5ec3
sI467
V\u5f15
sI468
V\u5fc3
sI469
V\u5fe0
sI470
V\u5ff5
sI471
V\u6069
sI472
V\u61b2
sI473
V\u6210
sI474
V\u6238
sI475
V\u629e
sI476
V\u6319
sI477
V\u635c
sI478
V\u6574
sI479
V\u6587
sI480
V\u65b0
sI481
V\u6687
sI482
V\u66ff
sI483
V\u672b
sI484
V\u6a19
sI485
V\u6bd4
sI486
V\u6c0f
sI487
V\u6c34
sI488
V\u6ce8
sI489
V\u6e21
sI490
V\u6e90
sI491
V\u6ec5
sI492
V\u6f0f
sI493
V\u70b9
sI494
V\u7121
sI495
V\u7968
sI496
V\u7b54
sI497
V\u7c4d
sI498
V\u7d42
sI499
V\u7d99
sI500
V\u7d9a
sI501
V\u7de0
sI502
V\u7f72
sI503
V\u88c1
sI504
V\u89b3
sI505
V\u8a34
sI506
V\u8aad
sI507
V\u8b72
sI508
V\u8c61
sI509
V\u8caf
sI510
V\u8cb4
sI511
V\u8f09
sI512
V\u9023
sI513
V\u9078
sI514
V\u9084
sI515
V\u9332
sI516
V\u958b
sI517
V\u9644
sI518
V\u9707
sI519
V\u98a8
ssS'id_to_tag'
p225
(dp226
I0
VI-E
p227
sI1
VI-R
p228
sI2
VI-S2
p229
sI3
VB-E
p230
sI4
VE-E
p231
sI5
VB-R
p232
sI6
VE-R
p233
sI7
VB-S2
p234
sI8
VE-S2
p235
sI9
VS-S2
p236
sI10
VI-ER
p237
sI11
VO
sI12
VS-S3
p238
sI13
VI-S3
p239
sI14
VS-E
p240
sI15
VI-S1
p241
sI16
VB-S3
p242
sI17
VE-S3
p243
sI18
VI-EL
p244
sI19
VB-EL
p245
sI20
VB-ER
p246
sI21
VE-EL
p247
sI22
VE-ER
p248
sI23
VB-S1
p249
sI24
VE-S1
p250
sI25
VS-S1
p251
ssS'id_to_word'
p252
(dp253
I0
S'<UNK>'
p254
sI1
V\u3059\u308b
p255
sI2
V\u8005
sI3
V\u305d\u306e
p256
sI4
V\u3057
sI5
V\u9805
sI6
V\u3068\u304d
p257
sI7
V\u898f\u5b9a
p258
sI8
V\u53c8\u306f
p259
sI9
V\u5e74\u91d1
p260
sI10
V\u3053\u3068
p261
sI11
V\u3082\u306e
p262
sI12
V\u671f\u9593
p263
sI13
V\u984d
sI14
V\u65e5
sI15
V\u6599
sI16
V\u5b9a\u3081\u308b
p264
sI17
V\u3067\u304d\u308b
p265
sI18
V\u3055
sI19
V\u6761
sI20
V\u5b50
sI21
V\u53ca\u3073
p266
sI22
V\u4fc2\u308b
p267
sI23
V\u9577\u5b98
p268
sI24
V\u53f7
sI25
V\u3042\u3063
p269
sI26
V\u524d\u9805
p270
sI27
V\u5834\u5408
p271
sI28
V\u7b49
sI29
V\u3042\u308b
p272
sI30
V\u57fa\u91d1
p273
sI31
V\u652f\u7d66
p274
sI32
V\u7533\u8acb
p275
sI33
V\u653f\u4ee4
p276
sI34
V\u6708
sI35
V\u7d66\u4ed8
p277
sI36
V\u91d1
sI37
V\u4ee5\u4e0a
p278
sI38
V\u5f53\u8a72
p279
sI39
V\u6a29
sI40
V\u4f1a
sI41
V\u81f3\u3063
p280
sI42
V\u969c\u5bb3
p281
sI43
V\u3053\u308c
p282
sI44
V\u305d\u306e\u4ed6
p283
sI45
V\u82e5\u3057\u304f\u306f
p284
sI46
V\u7387
sI47
V\u5fc5\u8981
p285
sI48
V\u4ee4
sI49
V\u54e1
sI50
V\u8cc7\u683c
p286
sI51
V\u3088\u308a
p287
sI52
V\u6cd5
sI53
V\u3046\u3061
p288
sI54
V\u53d7\u3051
p289
sI55
V\u6b21
sI56
V\u306a\u3063
p290
sI57
V\u3053\u306e
p291
sI58
V\u3068\u3053\u308d
p292
sI59
V\u4ee5\u5f8c
p293
sI60
V\u8981\u3057
p294
sI61
V\u3044\u305a\u308c
p295
sI62
V\u3064\u304d
p296
sI63
V\u4e8b\u9805
p297
sI64
V\u6709\u3059\u308b
p298
sI65
V\u6cd5\u5f8b
p299
sI66
V\u4e8b\u7531
p300
sI67
V\u751f\u3058
p301
sI68
V\u4ee5\u4e0b
p302
sI69
V\u884c\u3046
p303
sI70
V\u53d7\u3051\u308b
p304
sI71
V\u5fdc\u3058
p305
sI72
V\u6570
sI73
V\u6b7b\u4ea1
p306
sI74
V\u672a\u6e80
p307
sI75
V\u9577
sI76
V\u304b\u304b\u308f\u3089
p308
sI77
V\u307f\u306a\u3059
p309
sI78
V\u4eba
sI79
V\u9664\u304d
p310
sI80
V\u59bb
sI81
V\u7fcc\u6708
p311
sI82
V\u7a0b\u5ea6
p312
sI83
V\u305f\u3081
p313
sI84
V\u51e6\u5206
p314
sI85
V\u72b6\u614b
p315
sI86
V\u304b\u3064
p316
sI87
V\u3059
sI88
V\u65e2\u306b
p317
sI89
V\u5c4a\u51fa
p318
sI90
V\u5f53\u6642
p319
sI91
V\u5927\u81e3
p320
sI92
V\u696d\u52d9
p321
sI93
V\u7aef\u6570
p322
sI94
V\u5186
sI95
V\u6240\u5f97
p323
sI96
V\u6b73
sI97
V\u7b49\u7d1a
p324
sI98
V\u4e00\u90e8
p325
sI99
V\u63b2\u3052\u308b
p326
sI100
V\u751f\u8a08
p327
sI101
V\u8077\u54e1
p328
sI102
V\u8acb\u6c42
p329
sI103
V\u5f97
sI104
V\u653f\u5e9c
p330
sI105
V\u6708\u6570
p331
sI106
V\u8a8d\u3081\u308b
p332
sI107
V\u9054\u3057
p333
sI108
V\u4e57\u3058
p334
sI109
V\u4e8b\u52d9
p335
sI110
V\u7406\u4e8b
p336
sI111
V\u7533\u51fa
p337
sI112
V\u305d\u308c\u305e\u308c
p338
sI113
V\u307b\u304b
p339
sI114
V\u4e00
sI115
V\u6307\u5b9a
p340
sI116
V\u6539\u5b9a
p341
sI117
V\u6a29\u5229
p342
sI118
V\u9069\u7528
p343
sI119
V\u9664\u3044
p344
sI120
V\u3067\u304d
p345
sI121
V\u51e6\u3059\u308b
p346
sI122
V\u524d\u5e74
p347
sI123
V\u7d0d\u4ed8
p348
sI124
V\u7fcc\u65e5
p349
sI125
V\u884c\u308f
p350
sI126
V\u50b7\u75c5
p351
sI127
V\u5e74
sI128
V\u5f8c
sI129
V\u898f\u7d04
p352
sI130
V\u9593
sI131
V\u3053\u308c\u3089
p353
sI132
V\u306a\u308b
p354
sI133
V\u4e8b\u696d
p355
sI134
V\u4ee5\u5916
p356
sI135
V\u524d\u6761
p357
sI136
V\u8ca1\u653f
p358
sI137
V\u91d1\u984d
p359
sI138
V\u5185
sI139
V\u5e74\u5ea6
p360
sI140
V\u8457\u3057\u304f
p361
sI141
V\u3044\u3046
p362
sI142
V\u306a\u304f
p363
sI143
V\u4e09
sI144
V\u4e26\u3073\u306b
p364
sI145
V\u4f4f\u6240
p365
sI146
V\u5207\u308a\u6368\u3066\u308b
p366
sI147
V\u524d\u6708
p367
sI148
V\u56db
sI149
V\u57fa\u3065\u304f
p368
sI150
V\u5831\u544a
p369
sI151
V\u5c5e\u3059\u308b
p370
sI152
V\u7406\u7531
p371
sI153
V\u75be\u75c5
p372
sI154
V\u8a2d\u7acb
p373
sI155
V\u5206
sI156
V\u524d\u65e5
p374
sI157
V\u56f0\u96e3
p375
sI158
V\u76e3\u4e8b
p376
sI159
V\u76ee\u7684
p377
sI160
V\u7d0d
sI161
V\u7dcf\u4f1a
p378
sI162
V\u7f70\u91d1
p379
sI163
V\u8981\u4ef6
p380
sI164
V\u898b\u901a\u3057
p381
sI165
V\u5207\u308a\u4e0a\u3052\u308b
p382
sI166
V\u57fa\u6e96
p383
sI167
V\u5909\u66f4
p384
sI168
V\u5c4a\u3051\u51fa
p385
sI169
V\u65b9\u6cd5
p386
sI170
V\u671f\u9650
p387
sI171
V\u751f\u307e\u308c
p388
sI172
V\u7533\u3057\u51fa
p389
sI173
V\u865a\u507d
p390
sI174
V\u904b\u7528
p391
sI175
V\u304b\u304b\u308a
p392
sI176
V\u305f\u3060\u3057
p393
sI177
V\u4e0a
sI178
V\u4ed6
sI179
V\u4ee3\u8b70\u54e1
p394
sI180
V\u5404\u6708
p395
sI181
V\u540c\u3058\u304f
p396
sI182
V\u5ea6
sI183
V\u63aa\u7f6e
p397
sI184
V\u65e8
sI185
V\u7fa9\u52d9
p398
sI186
V\u80ce\u5150
p399
sI187
V\u884c\u70ba
p400
sI188
V\u8981\u3059\u308b
p401
sI189
V\u8a8d\u53ef
p402
sI190
V\u8cbb\u7528
p403
sI191
V\u907a\u65cf
p404
sI192
V\u3088\u308b
p405
sI193
V\u4e0d\u670d
p406
sI194
V\u4f8b
sI195
V\u53d6\u308a\u6d88\u3059
p407
sI196
V\u59d4\u8a17
p408
sI197
V\u5c06\u6765
p409
sI198
V\u5e02\u753a\u6751
p410
sI199
V\u65bd\u8a2d
p411
sI200
V\u6709\u3057
p412
sI201
V\u7269\u4ef6
p413
sI202
V\u7a2e\u5225
p414
sI203
V\u7d44\u5408
p415
sI204
V\u7d4c\u9a13
p416
sI205
V\u8077\u52d9
p417
sI206
V\u9650\u5ea6
p418
sI207
V\u3055\u304b\u306e\u307c\u3063
p419
sI208
V\u305b
sI209
V\u305d\u308c\u3089
p420
sI210
V\u4e8b\u60c5
p421
sI211
V\u4f1a\u793e
p422
sI212
V\u505c\u6b62
p423
sI213
V\u5145\u3066\u308b
p424
sI214
V\u5168\u984d
p425
sI215
V\u524d
sI216
V\u59cb\u3081\u308b
p426
sI217
V\u5b9a\u3081
p427
sI218
V\u5e33\u7c3f
p428
sI219
V\u5f79\u54e1
p429
sI220
V\u6255
sI221
V\u627f\u8a8d
p430
sI222
V\u6642
sI223
V\u6a5f\u95a2
p431
sI224
V\u6b63\u5f53
p432
sI225
V\u6c42\u3081\u308b
p433
sI226
V\u7a0e\u6cd5
p434
sI227
V\u8b70\u6c7a
p435
sI228
V\u8ca0\u3063
p436
sI229
V\u8cea\u554f
p437
sI230
V\u8d85\u3048\u308b
p438
sI231
V\u9054\u3059\u308b
p439
sI232
V\u9664\u304f
p440
sI233
V\u3044\u3064
p441
sI234
V\u3084\u3093
p442
sI235
V\u4e8b\u52d9\u6240
p443
sI236
V\u4e8b\u6545
p444
sI237
V\u4e8b\u696d\u4e3b
p445
sI238
V\u4ee5\u5185
p446
sI239
V\u4ee5\u964d
p447
sI240
V\u4efb\u671f
p448
sI241
V\u5229\u76ca
p449
sI242
V\u524d\u5f8c
p450
sI243
V\u534a\u984d
p451
sI244
V\u540c\u610f
p452
sI245
V\u56fd\u5185
p453
sI246
V\u5747\u8861
p454
sI247
V\u57fa\u790e
p455
sI248
V\u592b
sI249
V\u5a5a\u59fb
p456
sI250
V\u5f93\u524d
p457
sI251
V\u6240\u5728\u5730
p458
sI252
V\u624b\u5e33
p459
sI253
V\u640d\u5bb3
p460
sI254
V\u652f\u6255\u3046
p461
sI255
V\u6cd5\u4eba
p462
sI256
V\u72b6
sI257
V\u7763\u4fc3
p463
sI258
V\u7b2c\u4e09\u8005
p464
sI259
V\u7d4c
sI260
V\u8239\u8236
p465
sI261
V\u8a8d\u3081
p466
sI262
V\u904e\u6599
p467
sI263
V\u9806\u4f4d
p468
sI264
V\u307f\u306a\u3055
p469
sI265
V\u307f\u306a\u3057
p470
sI266
V\u4e0d\u660e
p471
sI267
V\u4e16\u5e2f
p472
sI268
V\u4e2d
sI269
V\u4e3b
sI270
V\u5168\u54e1
p473
sI271
V\u516d\u6708
p474
sI272
V\u51e6\u7406
p475
sI273
V\u521d\u3081\u3066
p476
sI274
V\u533b\u5e2b
p477
sI275
V\u53ce\u5165
p478
sI276
V\u5404\u9805
p479
sI277
V\u540c\u4e00
p480
sI278
V\u547d\u305a\u308b
p481
sI279
V\u56e3
sI280
V\u5e74\u9593
p482
sI281
V\u5f93\u308f
p483
sI282
V\u6240\u5728
p484
sI283
V\u652f\u6255\u308f
p485
sI284
V\u6545\u610f
p486
sI285
V\u6642\u52b9
p487
sI286
V\u66f4\u306b
p488
sI287
V\u6700\u521d
p489
sI288
V\u6b21\u9805
p490
sI289
V\u6b8b\u4f59
p491
sI290
V\u6e80\u305f
p492
sI291
V\u7684
sI292
V\u884c\u3063
p493
sI293
V\u884c\u306a\u3046
p494
sI294
V\u8a08\u7b97
p495
sI295
V\u8a8d\u5b9a
p496
sI296
V\u8cac\u3081
p497
sI297
V\u8d85\u3048
p498
sI298
V\u9045\u6ede
p499
sI299
V\u9673\u8ff0
p500
sI300
V\u3042\u3089\u304b\u3058\u3081
p501
sI301
V\u305a\u308b
p502
sI302
V\u305d\u306e\u3046\u3061
p503
sI303
V\u306a\u3044
p504
sI304
V\u306a\u3089
p505
sI305
V\u4fdd\u967a
p506
sI306
V\u5225\u6bb5
p507
sI307
V\u5236\u5ea6
p508
sI308
V\u539f\u56e0
p509
sI309
V\u53d6\u5f97
p510
sI310
V\u540c\u7a2e
p511
sI311
V\u5411\u304b\u3063
p512
sI312
V\u547d\u4ee4
p513
sI313
V\u55b6\u3080
p514
sI314
V\u56f3\u308b
p515
sI315
V\u56fd\u6c11
p516
sI316
V\u5730\u533a
p517
sI317
V\u57fa\u3065\u304d
p518
sI318
V\u5b9a\u6570
p519
sI319
V\u5c11\u306a\u304f\u3068\u3082
p520
sI320
V\u60c5\u5831
p521
sI321
V\u62db\u96c6
p522
sI322
V\u639b\u91d1
p523
sI323
V\u63d0\u4f9b
p524
sI324
V\u63d0\u51fa
p525
sI325
V\u63f4\u52a9
p526
sI326
V\u652f\u6255
p527
sI327
V\u660e\u3089\u304b
p528
sI328
V\u691c\u67fb
p529
sI329
V\u6a29\u9650
p530
sI330
V\u6b04
sI331
V\u6b21\u306b
p531
sI332
V\u6bce\u5e74
p532
sI333
V\u6c7a\u3059\u308b
p533
sI334
V\u6c7a\u5b9a
p534
sI335
V\u6cd5\u4ee4
p535
sI336
V\u72b6\u6cc1
p536
sI337
V\u767a\u3059\u308b
p537
sI338
V\u798f\u7949
p538
sI339
V\u7ae0
sI340
V\u7dcf\u6570
p539
sI341
V\u7f6e\u304f
p540
sI342
V\u8001\u9f62
p541
sI343
V\u8868
sI344
V\u898b\u8fbc\u307e
p542
sI345
V\u89e3\u9664
p543
sI346
V\u8a3a\u67fb
p544
sI347
V\u8a3a\u7642
p545
sI348
V\u8b70\u4e8b
p546
sI349
V\u8ca1\u7523
p547
sI350
V\u8ce0\u511f
p548
sI351
V\u9069\u6b63
p549
sI352
V\u95a2\u4fc2
p550
sI353
V\u96e2\u7e01
p551
sI354
V\u990a\u5b50
p552
sI355
V\u3042\u308a
p553
sI356
V\u304a\u304a\u3080\u306d
p554
sI357
V\u3064\u3044
p555
sI358
V\u306a\u304a
p556
sI359
V\u306a\u304b\u3063
p557
sI360
V\u306a\u3051\u308c
p558
sI361
V\u306a\u3055
p559
sI362
V\u306b\u3082\u304b\u304b\u308f\u3089\u305a
p560
sI363
V\u306e
sI364
V\u3088\u3089
p561
sI365
V\u4e03\u6708
p562
sI366
V\u4e0d\u6b63
p563
sI367
V\u4e2d\u65ad
p564
sI368
V\u4e3b\u3068\u3057\u3066
p565
sI369
V\u4e57\u3063
p566
sI370
V\u4e8c
sI371
V\u4e8c\u5341\u6b73
p567
sI372
V\u4ea4\u4ed8
p568
sI373
V\u4ee3\u7406\u4eba
p569
sI374
V\u4efb
sI375
V\u4f1a\u54e1
p570
sI376
V\u4fa1\u984d
p571
sI377
V\u4fdd\u3064
p572
sI378
V\u500b
sI379
V\u507d\u308a
p573
sI380
V\u5099\u3048\u4ed8\u3051
p574
sI381
V\u50b5\u6a29
p575
sI382
V\u5168\u56fd
p576
sI383
V\u516b\u6708
p577
sI384
V\u51e6\u7f6e
p578
sI385
V\u5206\u3089
p579
sI386
V\u5211
sI387
V\u524d\u7d0d
p580
sI388
V\u52a0\u7b97
p581
sI389
V\u52b9\u529b
p582
sI390
V\u5341
sI391
V\u53d6\u6d88\u3057
p583
sI392
V\u53d7\u3051\u5165\u308c
p584
sI393
V\u540d
sI394
V\u540d\u79f0
p585
sI395
V\u56e3\u4f53
p586
sI396
V\u56fd\u5eab
p587
sI397
V\u57f7\u884c
p588
sI398
V\u57fa\u3065\u3044
p589
sI399
V\u5897\u6e1b
p590
sI400
V\u5951\u7d04
p591
sI401
V\u59a8\u3052
p592
sI402
V\u59c9\u59b9
p593
sI403
V\u59d4\u54e1
p594
sI404
V\u5b6b
sI405
V\u5b89\u5b9a
p595
sI406
V\u5b98
sI407
V\u5bb3\u3059\u308b
p596
sI408
V\u5be1\u5a66
p597
sI409
V\u5c40\u9577
p598
sI410
V\u5fb4\u53ce
p599
sI411
V\u6240\u8981
p600
sI412
V\u624b\u6bb5
p601
sI413
V\u62d2\u307f
p602
sI414
V\u652f\u969c
p603
sI415
V\u66f8
sI416
V\u66f8\u9762
p604
sI417
V\u671f
sI418
V\u696d\u8005
p605
sI419
V\u6b20\u3051
p606
sI420
V\u6bcd
sI421
V\u6cbf\u3063
p607
sI422
V\u7236\u6bcd
p608
sI423
V\u73fe\u306b
p609
sI424
V\u751f\u6d3b
p610
sI425
V\u7528\u3044
p611
sI426
V\u767a\u8d77\u4eba
p612
sI427
V\u76e3\u67fb
p613
sI428
V\u76f4\u63a5
p614
sI429
V\u77e5\u308a
p615
sI430
V\u78ba\u5b9f
p616
sI431
V\u793a\u3059
p617
sI432
V\u79d1\u3059\u308b
p618
sI433
V\u79d8\u5bc6
p619
sI434
V\u7a0e
sI435
V\u7acb\u5165\u691c\u67fb
p620
sI436
V\u7b87\u6708
p621
sI437
V\u7bc0
sI438
V\u7d1a
sI439
V\u7d50\u679c
p622
sI440
V\u7dad\u6301
p623
sI441
V\u7e70\u4e0b\u3052
p624
sI442
V\u7f70\u3059\u308b
p625
sI443
V\u7fcc\u5e74
p626
sI444
V\u81ea\u5df1
p627
sI445
V\u88dc\u511f
p628
sI446
V\u88dc\u6b20
p629
sI447
V\u89aa\u65cf
p630
sI448
V\u89e3\u6563
p631
sI449
V\u8a3a\u65ad
p632
sI450
V\u8abf\u67fb
p633
sI451
V\u8b1b\u305c
p634
sI452
V\u8b70\u9577
p635
sI453
V\u8ca0\u3046
p636
sI454
V\u8eab\u5206
p637
sI455
V\u901f\u3084\u304b
p638
sI456
V\u90e8\u5206
p639
sI457
V\u90fd\u9053\u5e9c\u770c
p640
sI458
V\u91d1\u92ad
p641
sI459
V\u9650\u308a
p642
sI460
V\u969b
sI461
V\u9806\u5e8f
p643
sI462
V\u9806\u6b21
p644
sI463
V\u985e\u3059\u308b
p645
sI464
V\u304b\u308c\u308b
p646
sI465
V\u3054\u3068
p647
sI466
V\u3055\u304d
p648
sI467
V\u3055\u3089\u306b
p649
sI468
V\u3059\u3079\u3066
p650
sI469
V\u305d\u3053\u306a\u308f
p651
sI470
V\u305d\u306e\u5f8c
p652
sI471
V\u3068\u304a\u308a
p653
sI472
V\u306a\u304f\u306a\u3063
p654
sI473
V\u307e\u3060
p655
sI474
V\u3082\u3063\u3066
p656
sI475
V\u3082\u306e\u306e
p657
sI476
V\u30d1\u30fc\u30bb\u30f3\u30c8
p658
sI477
V\u4e00\u65b9
p659
sI478
V\u4e00\u6642
p660
sI479
V\u4e00\u7d1a
p661
sI480
V\u4e0a\u56de\u308b
p662
sI481
V\u4e0b\u56de\u308a
p663
sI482
V\u4e0d\u5f53
p664
sI483
V\u4e3b\u305f\u308b
p665
sI484
V\u4e88\u7b97
p666
sI485
V\u4e8c\u6708
p667
sI486
V\u4e94
sI487
V\u4ed6\u65b9
p668
sI488
V\u4ee3\u3063
p669
sI489
V\u4efb\u52d9
p670
sI490
V\u4efb\u547d
p671
sI491
V\u4f1a\u8b70
p672
sI492
V\u4f34\u3044
p673
sI493
V\u4f4f\u5b85
p674
sI494
V\u4fa1\u683c
p675
sI495
V\u4fbf\u5b9c
p676
sI496
V\u4fdd\u305f
p677
sI497
V\u4fe1\u8a17
p678
sI498
V\u5065\u5168
p679
sI499
V\u5099\u3048\u308b
p680
sI500
V\u50b5\u52d9
p681
sI501
V\u5148
sI502
V\u514d
sI503
V\u5168\u529b
p682
sI504
V\u5168\u90e8
p683
sI505
V\u516c\u52d9
p684
sI506
V\u516c\u544a
p685
sI507
V\u516c\u8ab2
p686
sI508
V\u5171\u6e08
p687
sI509
V\u517c\u306d\u308b
p688
sI510
V\u521d\u65e5
p689
sI511
V\u524d\u5e74\u5ea6
p690
sI512
V\u5272\u5408
p691
sI513
V\u52b4\u50cd\u7701
p692
sI514
V\u533a\u57df
p693
sI515
V\u5341\u4e8c\u6708
p694
sI516
V\u539f\u7c3f
p695
sI517
V\u53ce\u652f
p696
sI518
V\u53d6\u308a\u6d88\u3057
p697
sI519
V\u53e3\u5ea7
p698
sI520
V\u540c\u6570
p699
sI521
V\u540c\u6642\u306b
p700
sI522
V\u540c\u69d8
p701
sI523
V\u5411\u4e0a
p702
sI524
V\u542b\u3080
p703
sI525
V\u547d\u305c
p704
sI526
V\u55aa\u5931
p705
sI527
V\u56db\u6708
p706
sI528
V\u57fa\u3044
p707
sI529
V\u57fa\u304d
p708
sI530
V\u5834\u6240
p709
sI531
V\u5909\u52d5
p710
sI532
V\u5931\u3059\u308b
p711
sI533
V\u5b9f\u65bd
p712
sI534
V\u5bc4\u8a17
p713
sI535
V\u5bfe\u8c61
p714
sI536
V\u5c02\u3089
p715
sI537
V\u5dee\u3057\u62bc\u3048\u308b
p716
sI538
V\u5dee\u3057\u6b62\u3081\u308b
p717
sI539
V\u5dee\u62bc
p718
sI540
V\u5e30\u3059
p719
sI541
V\u5e74\u6708\u65e5
p720
sI542
V\u5f01\u6e08
p721
sI543
V\u5f15\u304d\u7d99\u304c
p722
sI544
V\u5f53\u308a
p723
sI545
V\u5f8c\u4efb
p724
sI546
V\u5fdc\u305a\u308b
p725
sI547
V\u5fe0\u5b9f
p726
sI548
V\u6020\u3063
p727
sI549
V\u6020\u308a
p728
sI550
V\u6069\u7d66
p729
sI551
V\u610f\u898b
p730
sI552
V\u614b\u69d8
p731
sI553
V\u61b2\u6cd5
p732
sI554
V\u6210\u7acb
p733
sI555
V\u6238\u7c4d
p734
sI556
V\u6240
sI557
V\u6240\u6709
p735
sI558
V\u624b\u7d9a
p736
sI559
V\u6255\u3044
p737
sI560
V\u6255\u3044\u51fa\u3057
p738
sI561
V\u6255\u51fa\u3057
p739
sI562
V\u62c5\u4fdd
p740
sI563
V\u62d2\u3093
p741
sI564
V\u6307\u793a
p742
sI565
V\u6319\u3052
p743
sI566
V\u635c\u67fb
p744
sI567
V\u6539\u5ec3
p745
sI568
V\u6570\u7406
p746
sI569
V\u6587\u5b57
p747
sI570
V\u65b0\u305f
p748
sI571
V\u65bd
sI572
V\u65e5\u6570
p749
sI573
V\u6642\u671f
p750
sI574
V\u6687
sI575
V\u66f8\u985e
p751
sI576
V\u6700\u5f8c
p752
sI577
V\u6709\u5229
p753
sI578
V\u672b\u65e5
p754
sI579
V\u6761\u4f8b
p755
sI580
V\u6a19\u6e96
p756
sI581
V\u6b21\u3044\u3067
p757
sI582
V\u6b21\u3050
p758
sI583
V\u6b21\u53f7
p759
sI584
V\u6bce\u6708
p760
sI585
V\u6bd4\u7387
p761
sI586
V\u6c0f\u540d
p762
sI587
V\u6c11\u6cd5
p763
sI588
V\u6c42\u3081
p764
sI589
V\u6ce8\u610f
p765
sI590
V\u6d88\u6ec5
p766
sI591
V\u6f0f\u3089\u3057
p767
sI592
V\u707d\u5bb3
p768
sI593
V\u7121\u6599
p769
sI594
V\u7279\u306b
p770
sI595
V\u7279\u5225
p771
sI596
V\u7279\u6a29
p772
sI597
V\u7406\u5ff5
p773
sI598
V\u751f\u3058\u308b
p774
sI599
V\u751f\u6b7b
p775
sI600
V\u7642\u990a
p776
sI601
V\u7701\u4ee4
p777
sI602
V\u7a2e\u985e
p778
sI603
V\u7acb\u3061\u5165\u3089
p779
sI604
V\u7b54\u5f01
p780
sI605
V\u7b97\u5b9a
p781
sI606
V\u7d30\u5247
p782
sI607
V\u7d30\u5fc3
p783
sI608
V\u7d42\u308b
p784
sI609
V\u7d4c\u7531
p785
sI610
V\u7d66\u6599
p786
sI611
V\u7de0\u7d50
p787
sI612
V\u7f70\u5247
p788
sI613
V\u7f72
sI614
V\u8457\u3057\u3044
p789
sI615
V\u88c1\u6c7a
p790
sI616
V\u89b3\u70b9
p791
sI617
V\u8a18\u8f09
p792
sI618
V\u8a18\u9332
p793
sI619
V\u8a34\u3048
p794
sI620
V\u8a3c\u660e
p795
sI621
V\u8a3c\u7968
p796
sI622
V\u8aad\u307f\u66ff\u3048\u308b
p797
sI623
V\u8ab2\u3059\u308b
p798
sI624
V\u8abf\u6574
p799
sI625
V\u8b72\u308a\u6e21\u3059
p800
sI626
V\u8ca0\u62c5
p801
sI627
V\u8ca1\u6e90
p802
sI628
V\u8cac
sI629
V\u8caf\u91d1
p803
sI630
V\u8cb4\u91cd
p804
sI631
V\u8cc7\u3059\u308b
p805
sI632
V\u8cc7\u91d1
p806
sI633
V\u9023\u5e2f
p807
sI634
V\u904b\u55b6
p808
sI635
V\u904e\u534a\u6570
p809
sI636
V\u904e\u5931
p810
sI637
V\u9078\u629e
p811
sI638
V\u9084\u4ed8
p812
sI639
V\u91cd\u5927
p813
sI640
V\u91cd\u5ea6
p814
sI641
V\u958b\u304b
p815
sI642
V\u9644\u5247
p816
sI643
V\u9707\u707d
p817
sI644
V\u98a8\u6c34\u5bb3
p818
ssa.